target datalayout = "e-m:e-p270:32:32-p271:32:32-p272:64:64-i64:64-i128:128-f80:128-n8:16:32:64-S128"
target triple = "x86_64-pc-linux-gnu"

%struct.exr_attribute_list = type { i32, i32, ptr, ptr }
%struct._priv_exr_context_t = type { i8, i8, i8, i8, i8, i8, i8, i8, %struct.exr_attr_string_t, %struct.exr_attr_string_t, ptr, ptr, ptr, ptr, ptr, ptr, ptr, ptr, i32, i32, i32, i32, i32, float, ptr, ptr, ptr, i64, ptr, ptr, i64, i32, i32, i32, i32, %struct._priv_exr_part_t, ptr, ptr, %struct.exr_attribute_list, %union.pthread_mutex_t, i8, i8, [2 x i8], i32 }
%struct.exr_attr_string_t = type { i32, i32, ptr }
%struct._priv_exr_part_t = type { i32, i32, %struct.exr_attribute_list, ptr, ptr, ptr, ptr, ptr, ptr, ptr, ptr, ptr, ptr, ptr, ptr, ptr, ptr, %struct.exr_attr_box2i_t, %struct.exr_attr_box2i_t, i32, i32, i32, float, i32, i32, ptr, ptr, ptr, ptr, i64, i16, i16, i32, i64, i64 }
%struct.exr_attr_box2i_t = type { %struct.exr_attr_v2i_t, %struct.exr_attr_v2i_t }
%struct.exr_attr_v2i_t = type { i32, i32 }
%union.pthread_mutex_t = type { %struct.__pthread_mutex_s }
%struct.__pthread_mutex_s = type { i32, i32, i32, i32, i32, i16, i16, %struct.__pthread_internal_list }
%struct.__pthread_internal_list = type { ptr, ptr }

; Function Attrs: nounwind uwtable
define hidden i32 @exr_attr_list_destroy(ptr noundef %0, ptr noundef %1) #0 {
  %3 = alloca i32, align 4
  %4 = alloca ptr, align 8
  %5 = alloca ptr, align 8
  %6 = alloca %struct.exr_attribute_list, align 8
  %7 = alloca i32, align 4
  %8 = alloca i32, align 4
  %9 = alloca i32, align 4
  %10 = alloca i32, align 4
  store ptr %0, ptr %4, align 8, !tbaa !15
  store ptr %1, ptr %5, align 8, !tbaa !17
  call void @llvm.lifetime.start.p0(i64 24, ptr %6) #6
  call void @llvm.memset.p0.i64(ptr align 8 %6, i8 0, i64 24, i1 false)
  call void @llvm.lifetime.start.p0(i64 4, ptr %7) #6
  call void @llvm.lifetime.start.p0(i64 4, ptr %8) #6
  store i32 0, ptr %8, align 4, !tbaa !8
  %11 = load ptr, ptr %4, align 8, !tbaa !15
  %12 = icmp ne ptr %11, null
  br i1 %12, label %14, label %13

13:                                               ; preds = %2
  store i32 2, ptr %3, align 4
  store i32 1, ptr %9, align 4
  br label %59

14:                                               ; preds = %2
  %15 = load ptr, ptr %5, align 8, !tbaa !17
  %16 = icmp ne ptr %15, null
  br i1 %16, label %17, label %57

17:                                               ; preds = %14
  %18 = load ptr, ptr %5, align 8, !tbaa !17
  %19 = getelementptr inbounds nuw %struct.exr_attribute_list, ptr %18, i32 0, i32 2
  %20 = load ptr, ptr %19, align 8, !tbaa !19
  %21 = icmp ne ptr %20, null
  br i1 %21, label %22, label %55

22:                                               ; preds = %17
  call void @llvm.lifetime.start.p0(i64 4, ptr %10) #6
  store i32 0, ptr %10, align 4, !tbaa !8
  br label %23

23:                                               ; preds = %45, %22
  %24 = load i32, ptr %10, align 4, !tbaa !8
  %25 = load ptr, ptr %5, align 8, !tbaa !17
  %26 = getelementptr inbounds nuw %struct.exr_attribute_list, ptr %25, i32 0, i32 0
  %27 = load i32, ptr %26, align 8, !tbaa !22
  %28 = icmp slt i32 %24, %27
  br i1 %28, label %30, label %29

29:                                               ; preds = %23
  store i32 2, ptr %9, align 4
  call void @llvm.lifetime.end.p0(i64 4, ptr %10) #6
  br label %48

30:                                               ; preds = %23
  %31 = load ptr, ptr %4, align 8, !tbaa !15
  %32 = load ptr, ptr %5, align 8, !tbaa !17
  %33 = getelementptr inbounds nuw %struct.exr_attribute_list, ptr %32, i32 0, i32 2
  %34 = load ptr, ptr %33, align 8, !tbaa !19
  %35 = load i32, ptr %10, align 4, !tbaa !8
  %36 = sext i32 %35 to i64
  %37 = getelementptr inbounds ptr, ptr %34, i64 %36
  %38 = load ptr, ptr %37, align 8, !tbaa !23
  %39 = call i32 @attr_destroy(ptr noundef %31, ptr noundef %38)
  store i32 %39, ptr %7, align 4, !tbaa !8
  %40 = load i32, ptr %7, align 4, !tbaa !8
  %41 = icmp ne i32 %40, 0
  br i1 %41, label %42, label %44

42:                                               ; preds = %30
  %43 = load i32, ptr %7, align 4, !tbaa !8
  store i32 %43, ptr %8, align 4, !tbaa !8
  br label %44

44:                                               ; preds = %42, %30
  br label %45

45:                                               ; preds = %44
  %46 = load i32, ptr %10, align 4, !tbaa !8
  %47 = add nsw i32 %46, 1
  store i32 %47, ptr %10, align 4, !tbaa !8
  br label %23, !llvm.loop !24

48:                                               ; preds = %29
  %49 = load ptr, ptr %4, align 8, !tbaa !15
  %50 = getelementptr inbounds nuw %struct._priv_exr_context_t, ptr %49, i32 0, i32 17
  %51 = load ptr, ptr %50, align 8, !tbaa !25
  %52 = load ptr, ptr %5, align 8, !tbaa !17
  %53 = getelementptr inbounds nuw %struct.exr_attribute_list, ptr %52, i32 0, i32 2
  %54 = load ptr, ptr %53, align 8, !tbaa !19
  call void %51(ptr noundef %54)
  br label %55

55:                                               ; preds = %48, %17
  %56 = load ptr, ptr %5, align 8, !tbaa !17
  call void @llvm.memcpy.p0.p0.i64(ptr align 8 %56, ptr align 8 %6, i64 24, i1 false), !tbaa.struct !36
  br label %57

57:                                               ; preds = %55, %14
  %58 = load i32, ptr %8, align 4, !tbaa !8
  store i32 %58, ptr %3, align 4
  store i32 1, ptr %9, align 4
  br label %59

59:                                               ; preds = %57, %13
  call void @llvm.lifetime.end.p0(i64 4, ptr %8) #6
  call void @llvm.lifetime.end.p0(i64 4, ptr %7) #6
  call void @llvm.lifetime.end.p0(i64 24, ptr %6) #6
  %60 = load i32, ptr %3, align 4
  ret i32 %60
}