; Function Attrs: nounwind uwtable
define hidden i32 @exr_attr_list_destroy(ptr noundef %0, ptr noundef %1) local_unnamed_addr #3 {
  %.not = icmp eq ptr %0, null
  br i1 %.not, label %20, label %3

3:                                                ; preds = %2
  %.not20 = icmp eq ptr %1, null
  br i1 %.not20, label %20, label %4

4:                                                ; preds = %3
  %5 = getelementptr inbounds nuw i8, ptr %1, i64 8
  %6 = load ptr, ptr %5, align 8, !tbaa !13
  %.not21 = icmp eq ptr %6, null
  br i1 %.not21, label %19, label %.preheader

.preheader:                                       ; preds = %4
  %7 = load i32, ptr %1, align 8, !tbaa !16
  %8 = icmp sgt i32 %7, 0
  br i1 %8, label %.lr.ph, label %._crit_edge

._crit_edge.loopexit:                             ; preds = %.lr.ph
  %.pre = load ptr, ptr %5, align 8, !tbaa !13
  br label %._crit_edge

._crit_edge:                                      ; preds = %._crit_edge.loopexit, %.preheader
  %9 = phi ptr [ %6, %.preheader ], [ %.pre, %._crit_edge.loopexit ]
  %.2.lcssa = phi i32 [ 0, %.preheader ], [ %spec.select, %._crit_edge.loopexit ]
  %10 = getelementptr inbounds nuw i8, ptr %0, i64 96
  %11 = load ptr, ptr %10, align 8, !tbaa !17
  tail call void %11(ptr noundef %9) #9
  br label %19

.lr.ph:                                           ; preds = %.preheader, %.lr.ph
  %indvars.iv = phi i64 [ %indvars.iv.next, %.lr.ph ], [ 0, %.preheader ]
  %.223 = phi i32 [ %spec.select, %.lr.ph ], [ 0, %.preheader ]
  %12 = load ptr, ptr %5, align 8, !tbaa !13
  %13 = getelementptr inbounds nuw ptr, ptr %12, i64 %indvars.iv
  %14 = load ptr, ptr %13, align 8, !tbaa !28
  %15 = tail call fastcc i32 @attr_destroy(ptr noundef %0, ptr noundef %14)
  %.not22 = icmp eq i32 %15, 0
  %spec.select = select i1 %.not22, i32 %.223, i32 %15
  %indvars.iv.next = add nuw nsw i64 %indvars.iv, 1
  %16 = load i32, ptr %1, align 8, !tbaa !16
  %17 = sext i32 %16 to i64
  %18 = icmp slt i64 %indvars.iv.next, %17
  br i1 %18, label %.lr.ph, label %._crit_edge.loopexit, !llvm.loop !29

19:                                               ; preds = %._crit_edge, %4
  %.1 = phi i32 [ %.2.lcssa, %._crit_edge ], [ 0, %4 ]
  tail call void @llvm.memset.p0.i64(ptr noundef nonnull align 8 dereferenceable(24) %1, i8 0, i64 24, i1 false)
  br label %20

20:                                               ; preds = %3, %19, %2
  %.016 = phi i32 [ 2, %2 ], [ %.1, %19 ], [ 0, %3 ]
  ret i32 %.016
}